; Function Attrs: mustprogress nounwind uwtable
define hidden noundef zeroext i1 @_ZN10duckdb_re26Regexp12QuickDestroyEv(ptr noundef nonnull align 8 dereferenceable(40) %0) local_unnamed_addr #2 align 2 {
  %2 = getelementptr inbounds nuw i8, ptr %0, i64 6
  %3 = load i16, ptr %2, align 2, !tbaa !13
  %4 = icmp eq i16 %3, 0
  br i1 %4, label %5, label %6

5:                                                ; preds = %1
  tail call void @_ZN10duckdb_re26RegexpD2Ev(ptr noundef nonnull align 8 dereferenceable(40) %0) #27
  tail call void @_ZdlPv(ptr noundef nonnull %0) #28
  br label %6

6:                                                ; preds = %1, %5
  ret i1 %4
}